; Function Attrs: nounwind uwtable
define internal range(i32 0, 2) i32 @test_kdf_pbkdf2_small_output() #0 {
  %1 = alloca [25 x i8], align 16
  %2 = alloca i32, align 4
  %3 = alloca i32, align 4
  call void @llvm.lifetime.start.p0(i64 25, ptr nonnull %1) #6
  call void @llvm.lifetime.start.p0(i64 4, ptr nonnull %2) #6
  store i32 4096, ptr %2, align 4, !tbaa !4
  call void @llvm.lifetime.start.p0(i64 4, ptr nonnull %3) #6
  store i32 0, ptr %3, align 4, !tbaa !4
  %4 = call fastcc ptr @construct_pbkdf2_params(ptr noundef nonnull @.str.60, ptr noundef nonnull @.str.61, ptr noundef %2, ptr noundef %3)
  %5 = call i32 @test_ptr(ptr noundef nonnull @.str.53, i32 noundef 663, ptr noundef nonnull @.str.62, ptr noundef %4) #6
  %.not = icmp eq i32 %5, 0
  br i1 %.not, label %18, label %6

6:                                                ; preds = %0
  %7 = call ptr @EVP_KDF_fetch(ptr noundef null, ptr noundef nonnull @.str.107, ptr noundef null) #6
  %8 = call ptr @EVP_KDF_CTX_new(ptr noundef %7) #6
  call void @EVP_KDF_free(ptr noundef %7) #6
  %9 = call i32 @test_ptr(ptr noundef nonnull @.str.53, i32 noundef 664, ptr noundef nonnull @.str.137, ptr noundef %8) #6
  %.not7 = icmp eq i32 %9, 0
  br i1 %.not7, label %18, label %10

10:                                               ; preds = %6
  %11 = call i32 @EVP_KDF_CTX_set_params(ptr noundef %8, ptr noundef %4) #6
  %12 = icmp ne i32 %11, 0
  %13 = zext i1 %12 to i32
  %14 = call i32 @test_true(ptr noundef nonnull @.str.53, i32 noundef 665, ptr noundef nonnull @.str.65, i32 noundef %13) #6
  %.not8 = icmp eq i32 %14, 0
  br i1 %.not8, label %18, label %15

15:                                               ; preds = %10
  %16 = call i32 @EVP_KDF_derive(ptr noundef %8, ptr noundef nonnull %1, i64 noundef 13, ptr noundef null) #6
  %17 = call i32 @test_int_eq(ptr noundef nonnull @.str.53, i32 noundef 667, ptr noundef nonnull @.str.139, ptr noundef nonnull @.str.67, i32 noundef %16, i32 noundef 0) #6
  %.not9 = icmp ne i32 %17, 0
  %spec.select = zext i1 %.not9 to i32
  br label %18

18:                                               ; preds = %15, %0, %6, %10
  %.06 = phi ptr [ %8, %10 ], [ %8, %6 ], [ null, %0 ], [ %8, %15 ]
  %.0 = phi i32 [ 0, %10 ], [ 0, %6 ], [ 0, %0 ], [ %spec.select, %15 ]
  call void @EVP_KDF_CTX_free(ptr noundef %.06) #6
  call void @CRYPTO_free(ptr noundef %4, ptr noundef nonnull @.str.53, i32 noundef 673) #6
  call void @llvm.lifetime.end.p0(i64 4, ptr nonnull %3) #6
  call void @llvm.lifetime.end.p0(i64 4, ptr nonnull %2) #6
  call void @llvm.lifetime.end.p0(i64 25, ptr nonnull %1) #6
  ret i32 %.0
}